target datalayout = "e-m:e-p270:32:32-p271:32:32-p272:64:64-i64:64-i128:128-f80:128-n8:16:32:64-S128"
target triple = "x86_64-unknown-linux-gnu"

%"struct.std::_Vector_base" = type { %"struct.std::_Vector_base<std::optional<std::basic_string_view<char>>, std::allocator<std::optional<std::basic_string_view<char>>>>::_Vector_impl" }
%"struct.std::_Vector_base<std::optional<std::basic_string_view<char>>, std::allocator<std::optional<std::basic_string_view<char>>>>::_Vector_impl" = type { %"struct.std::_Vector_base<std::optional<std::basic_string_view<char>>, std::allocator<std::optional<std::basic_string_view<char>>>>::_Vector_impl_data" }
%"struct.std::_Vector_base<std::optional<std::basic_string_view<char>>, std::allocator<std::optional<std::basic_string_view<char>>>>::_Vector_impl_data" = type { ptr, ptr, ptr }
%"class.std::basic_string_view" = type { i64, ptr }
%"class.std::optional" = type { %"struct.std::_Optional_base" }
%"struct.std::_Optional_base" = type { %"struct.std::_Optional_payload" }
%"struct.std::_Optional_payload" = type { %"struct.std::_Optional_payload_base.base", [7 x i8] }
%"struct.std::_Optional_payload_base.base" = type <{ %"union.std::_Optional_payload_base<std::basic_string_view<char>>::_Storage", i8 }>
%"union.std::_Optional_payload_base<std::basic_string_view<char>>::_Storage" = type { %"class.std::basic_string_view" }
%"class.std::__shared_count" = type { ptr }
%"class.std::shared_ptr.29" = type { %"class.std::__shared_ptr.30" }
%"class.std::__shared_ptr.30" = type { ptr, %"class.std::__shared_count" }
%"struct.std::_Optional_payload_base" = type <{ %"union.std::_Optional_payload_base<std::basic_string_view<char>>::_Storage", i8, [7 x i8] }>
%"class.facebook::velox::row::(anonymous namespace)::UnsafeRowDataBatchIterator" = type { ptr, ptr, i64, %"class.std::shared_ptr.29" }

; Function Attrs: mustprogress nounwind uwtable
define linkonce_odr noundef zeroext i1 @_ZNKSt19_Optional_base_implISt17basic_string_viewIcSt11char_traitsIcEESt14_Optional_baseIS3_Lb1ELb1EEE13_M_is_engagedEv(ptr noundef nonnull align 1 dereferenceable(1) %this) #0 comdat align 2 {
entry:
  %this.addr = alloca ptr, align 8
  store ptr %this, ptr %this.addr, align 8
  %this1 = load ptr, ptr %this.addr, align 8
  %_M_payload = getelementptr inbounds %"struct.std::_Optional_base", ptr %this1, i32 0, i32 0
  %_M_engaged = getelementptr inbounds %"struct.std::_Optional_payload_base", ptr %_M_payload, i32 0, i32 1
  %0 = load i8, ptr %_M_engaged, align 8
  %tobool = trunc i8 %0 to i1
  ret i1 %tobool
}

; Function Attrs: mustprogress nounwind uwtable
define linkonce_odr noundef zeroext i1 @_ZNKSt8optionalISt17basic_string_viewIcSt11char_traitsIcEEE9has_valueEv(ptr noundef nonnull align 8 dereferenceable(24) %this) #0 comdat align 2 {
entry:
  %this.addr = alloca ptr, align 8
  store ptr %this, ptr %this.addr, align 8
  %this1 = load ptr, ptr %this.addr, align 8
  %call = call noundef zeroext i1 @_ZNKSt19_Optional_base_implISt17basic_string_viewIcSt11char_traitsIcEESt14_Optional_baseIS3_Lb1ELb1EEE13_M_is_engagedEv(ptr noundef nonnull align 1 dereferenceable(1) %this1) #26
  ret i1 %call
}

; Function Attrs: mustprogress nounwind uwtable
define linkonce_odr noundef nonnull align 8 dereferenceable(24) ptr @_ZNKSt6vectorISt8optionalISt17basic_string_viewIcSt11char_traitsIcEEESaIS5_EEixEm(ptr noundef nonnull align 8 dereferenceable(24) %this, i64 noundef %__n) #0 comdat align 2 {
entry:
  %this.addr = alloca ptr, align 8
  %__n.addr = alloca i64, align 8
  store ptr %this, ptr %this.addr, align 8
  store i64 %__n, ptr %__n.addr, align 8
  %this1 = load ptr, ptr %this.addr, align 8
  %_M_impl = getelementptr inbounds %"struct.std::_Vector_base", ptr %this1, i32 0, i32 0
  %_M_start = getelementptr inbounds %"struct.std::_Vector_base<std::optional<std::basic_string_view<char>>, std::allocator<std::optional<std::basic_string_view<char>>>>::_Vector_impl_data", ptr %_M_impl, i32 0, i32 0
  %0 = load ptr, ptr %_M_start, align 8
  %1 = load i64, ptr %__n.addr, align 8
  %add.ptr = getelementptr inbounds %"class.std::optional", ptr %0, i64 %1
  ret ptr %add.ptr
}

; Function Attrs: mustprogress nounwind uwtable
define internal noundef zeroext i1 @_ZNK8facebook5velox3row12_GLOBAL__N_126UnsafeRowDataBatchIterator6isNullEm(ptr noundef nonnull align 8 dereferenceable(40) %this, i64 noundef %idx) unnamed_addr #0 align 2 {
entry:
  %this.addr = alloca ptr, align 8
  %idx.addr = alloca i64, align 8
  store ptr %this, ptr %this.addr, align 8
  store i64 %idx, ptr %idx.addr, align 8
  %this1 = load ptr, ptr %this.addr, align 8
  %data_ = getelementptr inbounds %"class.facebook::velox::row::(anonymous namespace)::UnsafeRowDataBatchIterator", ptr %this1, i32 0, i32 1
  %0 = load ptr, ptr %data_, align 8
  %1 = load i64, ptr %idx.addr, align 8
  %call = call noundef nonnull align 8 dereferenceable(24) ptr @_ZNKSt6vectorISt8optionalISt17basic_string_viewIcSt11char_traitsIcEEESaIS5_EEixEm(ptr noundef nonnull align 8 dereferenceable(24) %0, i64 noundef %1) #26
  %call2 = call noundef zeroext i1 @_ZNKSt8optionalISt17basic_string_viewIcSt11char_traitsIcEEE9has_valueEv(ptr noundef nonnull align 8 dereferenceable(24) %call) #26
  %lnot = xor i1 %call2, true
  ret i1 %lnot
}