; Function Attrs: mustprogress nofree norecurse nosync nounwind willreturn memory(read, inaccessiblemem: none) uwtable
define internal noundef zeroext i1 @_ZNK8facebook5velox3row12_GLOBAL__N_126UnsafeRowDataBatchIterator6isNullEm(ptr nocapture noundef nonnull readonly align 8 dereferenceable(40) %this, i64 noundef %idx) unnamed_addr #27 align 2 {
entry:
  %data_ = getelementptr inbounds i8, ptr %this, i64 8
  %0 = load ptr, ptr %data_, align 8
  %1 = load ptr, ptr %0, align 8
  %_M_engaged.i.i = getelementptr inbounds %"class.std::optional", ptr %1, i64 %idx, i32 0, i32 0, i32 0, i32 1
  %2 = load i8, ptr %_M_engaged.i.i, align 8
  %3 = and i8 %2, 1
  %tobool.i.i.not = icmp eq i8 %3, 0
  ret i1 %tobool.i.i.not
}